target datalayout = "e-m:e-p270:32:32-p271:32:32-p272:64:64-i64:64-i128:128-f80:128-n8:16:32:64-S128"
target triple = "x86_64-pc-linux-gnu"

; Function Attrs: alwaysinline nounwind uwtable
define internal void @store_u16_unaligned(i16 noundef zeroext %0, ptr noundef %1) #2 {
  %3 = alloca i16, align 2
  %4 = alloca ptr, align 8
  store i16 %0, ptr %3, align 2, !tbaa !63
  store ptr %1, ptr %4, align 8, !tbaa !16
  %5 = load ptr, ptr %4, align 8, !tbaa !16
  call void @llvm.memcpy.p0.p0.i64(ptr align 1 %5, ptr align 2 %3, i64 2, i1 false)
  ret void
}

; Function Attrs: alwaysinline nounwind uwtable
define internal void @store_u32_unaligned(i32 noundef %0, ptr noundef %1) #2 {
  %3 = alloca i32, align 4
  %4 = alloca ptr, align 8
  store i32 %0, ptr %3, align 4, !tbaa !4
  store ptr %1, ptr %4, align 8, !tbaa !16
  %5 = load ptr, ptr %4, align 8, !tbaa !16
  call void @llvm.memcpy.p0.p0.i64(ptr align 1 %5, ptr align 4 %3, i64 4, i1 false)
  ret void
}

; Function Attrs: alwaysinline nounwind uwtable
define internal void @put_unaligned_le16(i16 noundef zeroext %0, ptr noundef %1) #2 {
  %3 = alloca i16, align 2
  %4 = alloca ptr, align 8
  store i16 %0, ptr %3, align 2, !tbaa !63
  store ptr %1, ptr %4, align 8, !tbaa !33
  %5 = load i16, ptr %3, align 2, !tbaa !63
  %6 = zext i16 %5 to i32
  %7 = trunc i32 %6 to i16
  %8 = load ptr, ptr %4, align 8, !tbaa !33
  call void @store_u16_unaligned(i16 noundef zeroext %7, ptr noundef %8)
  ret void
}

; Function Attrs: alwaysinline nounwind uwtable
define internal void @put_unaligned_le32(i32 noundef %0, ptr noundef %1) #2 {
  %3 = alloca i32, align 4
  %4 = alloca ptr, align 8
  store i32 %0, ptr %3, align 4, !tbaa !4
  store ptr %1, ptr %4, align 8, !tbaa !33
  %5 = load i32, ptr %3, align 4, !tbaa !4
  %6 = load ptr, ptr %4, align 8, !tbaa !33
  call void @store_u32_unaligned(i32 noundef %5, ptr noundef %6)
  ret void
}

; Function Attrs: nounwind uwtable
define internal i64 @deflate_compress_none(ptr noundef %0, i64 noundef %1, ptr noundef %2, i64 noundef %3) #0 {
  %5 = alloca i64, align 8
  %6 = alloca ptr, align 8
  %7 = alloca i64, align 8
  %8 = alloca ptr, align 8
  %9 = alloca i64, align 8
  %10 = alloca ptr, align 8
  %11 = alloca ptr, align 8
  %12 = alloca ptr, align 8
  %13 = alloca ptr, align 8
  %14 = alloca i32, align 4
  %15 = alloca i8, align 1
  %16 = alloca i64, align 8
  store ptr %0, ptr %6, align 8, !tbaa !33
  store i64 %1, ptr %7, align 8, !tbaa !11
  store ptr %2, ptr %8, align 8, !tbaa !33
  store i64 %3, ptr %9, align 8, !tbaa !11
  call void @llvm.lifetime.start.p0(i64 8, ptr %10) #10
  %17 = load ptr, ptr %6, align 8, !tbaa !33
  store ptr %17, ptr %10, align 8, !tbaa !33
  call void @llvm.lifetime.start.p0(i64 8, ptr %11) #10
  %18 = load ptr, ptr %6, align 8, !tbaa !33
  %19 = load i64, ptr %7, align 8, !tbaa !11
  %20 = getelementptr inbounds nuw i8, ptr %18, i64 %19
  store ptr %20, ptr %11, align 8, !tbaa !33
  call void @llvm.lifetime.start.p0(i64 8, ptr %12) #10
  %21 = load ptr, ptr %8, align 8, !tbaa !33
  store ptr %21, ptr %12, align 8, !tbaa !33
  call void @llvm.lifetime.start.p0(i64 8, ptr %13) #10
  %22 = load ptr, ptr %8, align 8, !tbaa !33
  %23 = load i64, ptr %9, align 8, !tbaa !11
  %24 = getelementptr inbounds nuw i8, ptr %22, i64 %23
  store ptr %24, ptr %13, align 8, !tbaa !33
  %25 = load i64, ptr %7, align 8, !tbaa !11
  %26 = icmp eq i64 %25, 0
  %27 = xor i1 %26, true
  %28 = xor i1 %27, true
  %29 = zext i1 %28 to i32
  %30 = sext i32 %29 to i64
  %31 = call i64 @llvm.expect.i64(i64 %30, i64 0)
  %32 = icmp ne i64 %31, 0
  br i1 %32, label %33, label %41

33:                                               ; preds = %4
  %34 = load i64, ptr %9, align 8, !tbaa !11
  %35 = icmp ult i64 %34, 5
  br i1 %35, label %36, label %37

36:                                               ; preds = %33
  store i64 0, ptr %5, align 8
  store i32 1, ptr %14, align 4
  br label %105

37:                                               ; preds = %33
  %38 = load ptr, ptr %12, align 8, !tbaa !33
  %39 = getelementptr inbounds nuw i8, ptr %38, i32 1
  store ptr %39, ptr %12, align 8, !tbaa !33
  store i8 1, ptr %38, align 1, !tbaa !32
  %40 = load ptr, ptr %12, align 8, !tbaa !33
  call void @put_unaligned_le32(i32 noundef -65536, ptr noundef %40)
  store i64 5, ptr %5, align 8
  store i32 1, ptr %14, align 4
  br label %105

41:                                               ; preds = %4
  br label %42

42:                                               ; preds = %95, %41
  call void @llvm.lifetime.start.p0(i64 1, ptr %15) #10
  store i8 0, ptr %15, align 1, !tbaa !32
  call void @llvm.lifetime.start.p0(i64 8, ptr %16) #10
  store i64 65535, ptr %16, align 8, !tbaa !11
  %43 = load ptr, ptr %11, align 8, !tbaa !33
  %44 = load ptr, ptr %10, align 8, !tbaa !33
  %45 = ptrtoint ptr %43 to i64
  %46 = ptrtoint ptr %44 to i64
  %47 = sub i64 %45, %46
  %48 = icmp sle i64 %47, 65535
  br i1 %48, label %49, label %55

49:                                               ; preds = %42
  store i8 1, ptr %15, align 1, !tbaa !32
  %50 = load ptr, ptr %11, align 8, !tbaa !33
  %51 = load ptr, ptr %10, align 8, !tbaa !33
  %52 = ptrtoint ptr %50 to i64
  %53 = ptrtoint ptr %51 to i64
  %54 = sub i64 %52, %53
  store i64 %54, ptr %16, align 8, !tbaa !11
  br label %55

55:                                               ; preds = %49, %42
  %56 = load ptr, ptr %13, align 8, !tbaa !33
  %57 = load ptr, ptr %12, align 8, !tbaa !33
  %58 = ptrtoint ptr %56 to i64
  %59 = ptrtoint ptr %57 to i64
  %60 = sub i64 %58, %59
  %61 = load i64, ptr %16, align 8, !tbaa !11
  %62 = add i64 5, %61
  %63 = icmp ult i64 %60, %62
  br i1 %63, label %64, label %65

64:                                               ; preds = %55
  store i64 0, ptr %5, align 8
  store i32 1, ptr %14, align 4
  br label %92

65:                                               ; preds = %55
  %66 = load i8, ptr %15, align 1, !tbaa !32
  %67 = zext i8 %66 to i32
  %68 = or i32 %67, 0
  %69 = trunc i32 %68 to i8
  %70 = load ptr, ptr %12, align 8, !tbaa !33
  %71 = getelementptr inbounds nuw i8, ptr %70, i32 1
  store ptr %71, ptr %12, align 8, !tbaa !33
  store i8 %69, ptr %70, align 1, !tbaa !32
  %72 = load i64, ptr %16, align 8, !tbaa !11
  %73 = trunc i64 %72 to i16
  %74 = load ptr, ptr %12, align 8, !tbaa !33
  call void @put_unaligned_le16(i16 noundef zeroext %73, ptr noundef %74)
  %75 = load ptr, ptr %12, align 8, !tbaa !33
  %76 = getelementptr inbounds i8, ptr %75, i64 2
  store ptr %76, ptr %12, align 8, !tbaa !33
  %77 = load i64, ptr %16, align 8, !tbaa !11
  %78 = xor i64 %77, -1
  %79 = trunc i64 %78 to i16
  %80 = load ptr, ptr %12, align 8, !tbaa !33
  call void @put_unaligned_le16(i16 noundef zeroext %79, ptr noundef %80)
  %81 = load ptr, ptr %12, align 8, !tbaa !33
  %82 = getelementptr inbounds i8, ptr %81, i64 2
  store ptr %82, ptr %12, align 8, !tbaa !33
  %83 = load ptr, ptr %12, align 8, !tbaa !33
  %84 = load ptr, ptr %10, align 8, !tbaa !33
  %85 = load i64, ptr %16, align 8, !tbaa !11
  call void @llvm.memcpy.p0.p0.i64(ptr align 1 %83, ptr align 1 %84, i64 %85, i1 false)
  %86 = load i64, ptr %16, align 8, !tbaa !11
  %87 = load ptr, ptr %12, align 8, !tbaa !33
  %88 = getelementptr inbounds nuw i8, ptr %87, i64 %86
  store ptr %88, ptr %12, align 8, !tbaa !33
  %89 = load i64, ptr %16, align 8, !tbaa !11
  %90 = load ptr, ptr %10, align 8, !tbaa !33
  %91 = getelementptr inbounds nuw i8, ptr %90, i64 %89
  store ptr %91, ptr %10, align 8, !tbaa !33
  store i32 0, ptr %14, align 4
  br label %92

92:                                               ; preds = %65, %64
  call void @llvm.lifetime.end.p0(i64 8, ptr %16) #10
  call void @llvm.lifetime.end.p0(i64 1, ptr %15) #10
  %93 = load i32, ptr %14, align 4
  switch i32 %93, label %105 [
    i32 0, label %94
  ]

94:                                               ; preds = %92
  br label %95

95:                                               ; preds = %94
  %96 = load ptr, ptr %10, align 8, !tbaa !33
  %97 = load ptr, ptr %11, align 8, !tbaa !33
  %98 = icmp ne ptr %96, %97
  br i1 %98, label %42, label %99

99:                                               ; preds = %95
  %100 = load ptr, ptr %12, align 8, !tbaa !33
  %101 = load ptr, ptr %8, align 8, !tbaa !33
  %102 = ptrtoint ptr %100 to i64
  %103 = ptrtoint ptr %101 to i64
  %104 = sub i64 %102, %103
  store i64 %104, ptr %5, align 8
  store i32 1, ptr %14, align 4
  br label %105

105:                                              ; preds = %99, %92, %37, %36
  call void @llvm.lifetime.end.p0(i64 8, ptr %13) #10
  call void @llvm.lifetime.end.p0(i64 8, ptr %12) #10
  call void @llvm.lifetime.end.p0(i64 8, ptr %11) #10
  call void @llvm.lifetime.end.p0(i64 8, ptr %10) #10
  %106 = load i64, ptr %5, align 8
  ret i64 %106
}