; Function Attrs: nofree norecurse nosync nounwind memory(argmem: readwrite) uwtable
define internal fastcc i64 @deflate_compress_none(ptr noundef %0, i64 noundef %1, ptr noundef %2, i64 noundef %3) unnamed_addr #4 {
  %5 = getelementptr inbounds nuw i8, ptr %0, i64 %1
  %6 = icmp eq i64 %1, 0
  br i1 %6, label %10, label %.preheader, !prof !30

.preheader:                                       ; preds = %4
  %7 = getelementptr inbounds nuw i8, ptr %2, i64 %3
  %8 = ptrtoint ptr %5 to i64
  %9 = ptrtoint ptr %7 to i64
  br label %14

10:                                               ; preds = %4
  %11 = icmp ult i64 %3, 5
  br i1 %11, label %.thread, label %12

12:                                               ; preds = %10
  %13 = getelementptr inbounds nuw i8, ptr %2, i64 1
  store i8 1, ptr %2, align 1, !tbaa !25
  store i32 -65536, ptr %13, align 1
  br label %.thread

14:                                               ; preds = %.preheader, %21
  %.042 = phi ptr [ %28, %21 ], [ %0, %.preheader ]
  %.040 = phi ptr [ %27, %21 ], [ %2, %.preheader ]
  %15 = ptrtoint ptr %.042 to i64
  %16 = sub i64 %8, %15
  %17 = icmp slt i64 %16, 65536
  %spec.select46 = select i1 %17, i64 %16, i64 65535
  %18 = ptrtoint ptr %.040 to i64
  %19 = sub i64 %9, %18
  %20 = add nsw i64 %spec.select46, 5
  %.not = icmp ult i64 %19, %20
  br i1 %.not, label %.thread, label %21

21:                                               ; preds = %14
  %spec.select = zext i1 %17 to i8
  %22 = getelementptr inbounds nuw i8, ptr %.040, i64 1
  store i8 %spec.select, ptr %.040, align 1, !tbaa !25
  %23 = trunc i64 %spec.select46 to i16
  store i16 %23, ptr %22, align 1
  %24 = getelementptr inbounds nuw i8, ptr %.040, i64 3
  %25 = xor i16 %23, -1
  store i16 %25, ptr %24, align 1
  %26 = getelementptr inbounds nuw i8, ptr %.040, i64 5
  tail call void @llvm.memcpy.p0.p0.i64(ptr nonnull align 1 %26, ptr align 1 %.042, i64 %spec.select46, i1 false)
  %27 = getelementptr inbounds nuw i8, ptr %26, i64 %spec.select46
  %28 = getelementptr inbounds nuw i8, ptr %.042, i64 %spec.select46
  %.not45 = icmp eq ptr %28, %5
  br i1 %.not45, label %29, label %14

29:                                               ; preds = %21
  %30 = ptrtoint ptr %27 to i64
  %31 = ptrtoint ptr %2 to i64
  %32 = sub i64 %30, %31
  br label %.thread

.thread:                                          ; preds = %14, %10, %29, %12
  %.039 = phi i64 [ 5, %12 ], [ %32, %29 ], [ 0, %10 ], [ 0, %14 ]
  ret i64 %.039
}